; Function Attrs: nounwind uwtable
define internal range(i32 0, 2) i32 @cipher_hw_aes_initkey(ptr noundef %0, ptr noundef %1, i64 noundef %2) #1 {
  %4 = getelementptr inbounds nuw i8, ptr %0, i64 192
  %5 = getelementptr inbounds nuw i8, ptr %0, i64 176
  store ptr %4, ptr %5, align 8, !tbaa !7
  %6 = getelementptr inbounds nuw i8, ptr %0, i64 64
  %7 = load i32, ptr %6, align 8, !tbaa !14
  %.off = add i32 %7, -1
  %switch = icmp ult i32 %.off, 2
  br i1 %switch, label %8, label %32

8:                                                ; preds = %3
  %9 = getelementptr inbounds nuw i8, ptr %0, i64 108
  %10 = load i8, ptr %9, align 4
  %11 = and i8 %10, 2
  %.not = icmp eq i8 %11, 0
  br i1 %.not, label %12, label %32

12:                                               ; preds = %8
  %13 = load i32, ptr getelementptr inbounds nuw (i8, ptr @OPENSSL_ia32cap_P, i64 4), align 4, !tbaa !3
  %14 = and i32 %13, 512
  %.not46 = icmp eq i32 %14, 0
  %15 = getelementptr inbounds nuw i8, ptr %0, i64 48
  br i1 %.not46, label %26, label %16

16:                                               ; preds = %12
  %17 = icmp eq i32 %7, 2
  %.tr49 = trunc i64 %2 to i32
  %18 = shl i32 %.tr49, 3
  br i1 %17, label %19, label %21

19:                                               ; preds = %16
  %20 = tail call i32 @AES_set_decrypt_key(ptr noundef %1, i32 noundef %18, ptr noundef nonnull %4) #5
  store ptr @AES_decrypt, ptr %15, align 8, !tbaa !15
  br label %52

21:                                               ; preds = %16
  %22 = tail call i32 @vpaes_set_decrypt_key(ptr noundef %1, i32 noundef %18, ptr noundef nonnull %4) #5
  store ptr @vpaes_decrypt, ptr %15, align 8, !tbaa !15
  %23 = load i32, ptr %6, align 8, !tbaa !14
  %24 = icmp eq i32 %23, 2
  %25 = select i1 %24, ptr @vpaes_cbc_encrypt, ptr null
  br label %52

26:                                               ; preds = %12
  %.tr = trunc i64 %2 to i32
  %27 = shl i32 %.tr, 3
  %28 = tail call i32 @AES_set_decrypt_key(ptr noundef %1, i32 noundef %27, ptr noundef nonnull %4) #5
  store ptr @AES_decrypt, ptr %15, align 8, !tbaa !15
  %29 = load i32, ptr %6, align 8, !tbaa !14
  %30 = icmp eq i32 %29, 2
  %31 = select i1 %30, ptr @AES_cbc_encrypt, ptr null
  br label %52

32:                                               ; preds = %3, %8
  %33 = load i32, ptr getelementptr inbounds nuw (i8, ptr @OPENSSL_ia32cap_P, i64 4), align 4, !tbaa !3
  %34 = and i32 %33, 512
  %.not50 = icmp eq i32 %34, 0
  %35 = getelementptr inbounds nuw i8, ptr %0, i64 48
  br i1 %.not50, label %46, label %36

36:                                               ; preds = %32
  %37 = icmp eq i32 %7, 5
  %.tr54 = trunc i64 %2 to i32
  %38 = shl i32 %.tr54, 3
  br i1 %37, label %39, label %41

39:                                               ; preds = %36
  %40 = tail call i32 @AES_set_encrypt_key(ptr noundef %1, i32 noundef %38, ptr noundef nonnull %4) #5
  store ptr @AES_encrypt, ptr %35, align 8, !tbaa !15
  br label %52

41:                                               ; preds = %36
  %42 = tail call i32 @vpaes_set_encrypt_key(ptr noundef %1, i32 noundef %38, ptr noundef nonnull %4) #5
  store ptr @vpaes_encrypt, ptr %35, align 8, !tbaa !15
  %43 = load i32, ptr %6, align 8, !tbaa !14
  %44 = icmp eq i32 %43, 2
  %45 = select i1 %44, ptr @vpaes_cbc_encrypt, ptr null
  br label %52

46:                                               ; preds = %32
  %.tr52 = trunc i64 %2 to i32
  %47 = shl i32 %.tr52, 3
  %48 = tail call i32 @AES_set_encrypt_key(ptr noundef %1, i32 noundef %47, ptr noundef nonnull %4) #5
  store ptr @AES_encrypt, ptr %35, align 8, !tbaa !15
  %49 = load i32, ptr %6, align 8, !tbaa !14
  %50 = icmp eq i32 %49, 2
  %51 = select i1 %50, ptr @AES_cbc_encrypt, ptr null
  br label %52

52:                                               ; preds = %39, %46, %41, %19, %26, %21
  %ossl_bsaes_ctr32_encrypt_blocks.sink = phi ptr [ @ossl_bsaes_ctr32_encrypt_blocks, %39 ], [ %51, %46 ], [ %45, %41 ], [ @ossl_bsaes_cbc_encrypt, %19 ], [ %31, %26 ], [ %25, %21 ]
  %.044 = phi i32 [ %40, %39 ], [ %48, %46 ], [ %42, %41 ], [ %20, %19 ], [ %28, %26 ], [ %22, %21 ]
  %53 = getelementptr inbounds nuw i8, ptr %0, i64 56
  store ptr %ossl_bsaes_ctr32_encrypt_blocks.sink, ptr %53, align 8, !tbaa !16
  %54 = icmp slt i32 %.044, 0
  br i1 %54, label %55, label %56

55:                                               ; preds = %52
  tail call void @ERR_new() #5
  tail call void @ERR_set_debug(ptr noundef nonnull @.str.1, i32 noundef 117, ptr noundef nonnull @__func__.cipher_hw_aes_initkey) #5
  tail call void (i32, i32, ptr, ...) @ERR_set_error(i32 noundef 57, i32 noundef 101, ptr noundef null) #5
  br label %56

56:                                               ; preds = %52, %55
  %.0 = phi i32 [ 0, %55 ], [ 1, %52 ]
  ret i32 %.0
}